target datalayout = "e-m:e-p270:32:32-p271:32:32-p272:64:64-i64:64-i128:128-f80:128-n8:16:32:64-S128"
target triple = "x86_64-unknown-linux-gnu"

%struct.ssl_st = type { i32, i16, i16, ptr, ptr, ptr, ptr, ptr, i32, i32, ptr, ptr, i32, i32, ptr, ptr, ptr, ptr, ptr, ptr, ptr, ptr, i32, i32, [32 x i8], ptr, ptr, ptr, ptr, ptr, ptr, ptr, i64, %struct.crypto_ex_data_st, ptr, i32, i32, i32, i32, i16, ptr, i32, i64, ptr, ptr, ptr, ptr, ptr, ptr, i32, i32, ptr, ptr, i8, i8, i32 }
%struct.crypto_ex_data_st = type { ptr }
%struct.ssl3_state_st = type { [8 x i8], [8 x i8], [32 x i8], [32 x i8], i8, i8, %struct.ssl3_buffer_st, %struct.ssl3_buffer_st, %struct.ssl3_record_st, i8, i32, i32, i32, i32, ptr, ptr, %struct.env_md_ctx_st, %struct.env_md_ctx_st, i8, i32, [2 x i8], i32, i8, i8, ptr, ptr, ptr, %struct.anon, [64 x i8], i8, [64 x i8], i8, i32, i32, ptr, i64, ptr, i64, i8, [64 x i8] }
%struct.ssl3_buffer_st = type { ptr, i16, i16, i16 }
%struct.ssl3_record_st = type { i8, i16, ptr }
%struct.env_md_ctx_st = type { ptr, ptr, ptr, ptr }
%struct.anon = type { [64 x i8], i32, [64 x i8], i32, i64, i32, ptr, i32, i32, %union.anon, %union.anon.0, i8, i32, ptr, ptr, i64, ptr, i8, i8, i8, i8, i32, i8, ptr, i64, i8, ptr, i8, i8, i8, %struct.ssl_ecdh_ctx_st, ptr, i16 }
%union.anon = type { i32 }
%union.anon.0 = type { i16 }
%struct.ssl_ecdh_ctx_st = type { ptr, ptr }

; Function Attrs: nounwind uwtable
define hidden i64 @SSL_get_tls_channel_id(ptr noundef %ssl, ptr noundef %out, i64 noundef %max_out) #0 {
entry:
  %retval = alloca i64, align 8
  %ssl.addr = alloca ptr, align 8
  %out.addr = alloca ptr, align 8
  %max_out.addr = alloca i64, align 8
  store ptr %ssl, ptr %ssl.addr, align 8
  store ptr %out, ptr %out.addr, align 8
  store i64 %max_out, ptr %max_out.addr, align 8
  %0 = load ptr, ptr %ssl.addr, align 8
  %s3 = getelementptr inbounds %struct.ssl_st, ptr %0, i32 0, i32 14
  %1 = load ptr, ptr %s3, align 8
  %tlsext_channel_id_valid = getelementptr inbounds %struct.ssl3_state_st, ptr %1, i32 0, i32 38
  %2 = load i8, ptr %tlsext_channel_id_valid, align 8
  %tobool = icmp ne i8 %2, 0
  br i1 %tobool, label %if.end, label %if.then

if.then:                                          ; preds = %entry
  store i64 0, ptr %retval, align 8
  br label %return

if.end:                                           ; preds = %entry
  %3 = load ptr, ptr %out.addr, align 8
  %4 = load ptr, ptr %ssl.addr, align 8
  %s31 = getelementptr inbounds %struct.ssl_st, ptr %4, i32 0, i32 14
  %5 = load ptr, ptr %s31, align 8
  %tlsext_channel_id = getelementptr inbounds %struct.ssl3_state_st, ptr %5, i32 0, i32 39
  %arraydecay = getelementptr inbounds [64 x i8], ptr %tlsext_channel_id, i64 0, i64 0
  %6 = load i64, ptr %max_out.addr, align 8
  %cmp = icmp ult i64 %6, 64
  br i1 %cmp, label %cond.true, label %cond.false

cond.true:                                        ; preds = %if.end
  %7 = load i64, ptr %max_out.addr, align 8
  br label %cond.end

cond.false:                                       ; preds = %if.end
  br label %cond.end

cond.end:                                         ; preds = %cond.false, %cond.true
  %cond = phi i64 [ %7, %cond.true ], [ 64, %cond.false ]
  call void @llvm.memcpy.p0.p0.i64(ptr align 1 %3, ptr align 1 %arraydecay, i64 %cond, i1 false)
  store i64 64, ptr %retval, align 8
  br label %return

return:                                           ; preds = %cond.end, %if.then
  %8 = load i64, ptr %retval, align 8
  ret i64 %8
}