; Function Attrs: mustprogress nofree norecurse nosync nounwind willreturn memory(readwrite, inaccessiblemem: none) uwtable
define hidden range(i64 0, 65) i64 @SSL_get_tls_channel_id(ptr noundef readonly captures(none) %ssl, ptr noundef writeonly captures(none) %out, i64 noundef %max_out) local_unnamed_addr #7 {
entry:
  %s3 = getelementptr inbounds nuw i8, ptr %ssl, i64 80
  %0 = load ptr, ptr %s3, align 8
  %tlsext_channel_id_valid = getelementptr inbounds nuw i8, ptr %0, i64 768
  %1 = load i8, ptr %tlsext_channel_id_valid, align 8
  %tobool.not = icmp eq i8 %1, 0
  br i1 %tobool.not, label %return, label %if.end

if.end:                                           ; preds = %entry
  %tlsext_channel_id = getelementptr inbounds nuw i8, ptr %0, i64 769
  %cond = tail call i64 @llvm.umin.i64(i64 %max_out, i64 64)
  tail call void @llvm.memcpy.p0.p0.i64(ptr align 1 %out, ptr nonnull align 1 %tlsext_channel_id, i64 %cond, i1 false)
  br label %return

return:                                           ; preds = %entry, %if.end
  %retval.0 = phi i64 [ 64, %if.end ], [ 0, %entry ]
  ret i64 %retval.0
}